target datalayout = "e-m:e-p270:32:32-p271:32:32-p272:64:64-i64:64-i128:128-f80:128-n8:16:32:64-S128"
target triple = "x86_64-pc-linux-gnu"

%struct.security_mark_t = type { ptr, ptr }
%struct.bp_block_canonical_t = type { i64, ptr, ptr, ptr, i64, i64, ptr, ptr, ptr, %struct.security_mark_t }

; Function Attrs: null_pointer_is_valid sspstrong uwtable
define ptr @bp_block_canonical_new(ptr noundef %0, i64 noundef %1) #2 {
  %3 = alloca ptr, align 8
  %4 = alloca i64, align 8
  %5 = alloca ptr, align 8
  store ptr %0, ptr %3, align 8
  store i64 %1, ptr %4, align 8
  call void @llvm.lifetime.start.p0(i64 8, ptr %5) #18
  %6 = load ptr, ptr %3, align 8
  %7 = call noalias ptr @wmem_alloc0(ptr noundef %6, i64 noundef 88) #19
  store ptr %7, ptr %5, align 8
  %8 = load i64, ptr %4, align 8
  %9 = load ptr, ptr %5, align 8
  %10 = getelementptr inbounds nuw %struct.bp_block_canonical_t, ptr %9, i32 0, i32 0
  store i64 %8, ptr %10, align 8
  %11 = load ptr, ptr %3, align 8
  %12 = call noalias ptr @wmem_map_new(ptr noundef %11, ptr noundef @g_int64_hash, ptr noundef @g_int64_equal)
  %13 = load ptr, ptr %5, align 8
  %14 = getelementptr inbounds nuw %struct.bp_block_canonical_t, ptr %13, i32 0, i32 9
  %15 = getelementptr inbounds nuw %struct.security_mark_t, ptr %14, i32 0, i32 0
  store ptr %12, ptr %15, align 8
  %16 = load ptr, ptr %3, align 8
  %17 = call noalias ptr @wmem_map_new(ptr noundef %16, ptr noundef @g_int64_hash, ptr noundef @g_int64_equal)
  %18 = load ptr, ptr %5, align 8
  %19 = getelementptr inbounds nuw %struct.bp_block_canonical_t, ptr %18, i32 0, i32 9
  %20 = getelementptr inbounds nuw %struct.security_mark_t, ptr %19, i32 0, i32 1
  store ptr %17, ptr %20, align 8
  %21 = load ptr, ptr %5, align 8
  call void @llvm.lifetime.end.p0(i64 8, ptr %5) #18
  ret ptr %21
}