; Function Attrs: null_pointer_is_valid sspstrong uwtable
define noalias noundef ptr @bp_block_canonical_new(ptr noundef %0, i64 noundef %1) local_unnamed_addr #2 {
  %3 = tail call noalias dereferenceable_or_null(88) ptr @wmem_alloc0(ptr noundef %0, i64 noundef 88) #16
  store i64 %1, ptr %3, align 8
  %4 = tail call noalias ptr @wmem_map_new(ptr noundef %0, ptr noundef nonnull @g_int64_hash, ptr noundef nonnull @g_int64_equal)
  %5 = getelementptr inbounds nuw i8, ptr %3, i64 72
  store ptr %4, ptr %5, align 8
  %6 = tail call noalias ptr @wmem_map_new(ptr noundef %0, ptr noundef nonnull @g_int64_hash, ptr noundef nonnull @g_int64_equal)
  %7 = getelementptr inbounds nuw i8, ptr %3, i64 80
  store ptr %6, ptr %7, align 8
  ret ptr %3
}